target datalayout = "e-m:e-p270:32:32-p271:32:32-p272:64:64-i64:64-i128:128-f80:128-n8:16:32:64-S128"
target triple = "x86_64-pc-linux-gnu"

%class.CVQualifiers = type { ptr, i8, i8, %"class.std::vector", %"class.std::vector" }
%"class.std::vector" = type { %"struct.std::_Bvector_base" }
%"struct.std::_Bvector_base" = type { %"struct.std::_Bvector_base<std::allocator<bool>>::_Bvector_impl" }
%"struct.std::_Bvector_base<std::allocator<bool>>::_Bvector_impl" = type { %"struct.std::_Bvector_base<std::allocator<bool>>::_Bvector_impl_data" }
%"struct.std::_Bvector_base<std::allocator<bool>>::_Bvector_impl_data" = type { %"struct.std::_Bit_iterator", %"struct.std::_Bit_iterator", ptr }
%"struct.std::_Bit_iterator" = type { %"struct.std::_Bit_iterator_base.base", [4 x i8] }
%"struct.std::_Bit_iterator_base.base" = type <{ ptr, i32 }>
%"struct.std::_Bit_const_iterator" = type { %"struct.std::_Bit_iterator_base.base", [4 x i8] }
%"struct.std::_Bit_reference" = type { ptr, i64 }
%"struct.std::_Bit_iterator_base" = type <{ ptr, i32, [4 x i8] }>

; Function Attrs: mustprogress nounwind uwtable
define linkonce_odr dso_local void @_ZNSt18_Bit_iterator_base7_M_incrEl(ptr noundef nonnull align 8 dereferenceable(12) %0, i64 noundef %1) #4 comdat align 2 {
  %3 = alloca ptr, align 8
  %4 = alloca i64, align 8
  %5 = alloca i64, align 8
  store ptr %0, ptr %3, align 8
  store i64 %1, ptr %4, align 8
  %6 = load ptr, ptr %3, align 8
  %7 = load i64, ptr %4, align 8
  %8 = getelementptr inbounds %"struct.std::_Bit_iterator_base", ptr %6, i32 0, i32 1
  %9 = load i32, ptr %8, align 8
  %10 = zext i32 %9 to i64
  %11 = add nsw i64 %7, %10
  store i64 %11, ptr %5, align 8
  %12 = load i64, ptr %5, align 8
  %13 = sdiv i64 %12, 64
  %14 = getelementptr inbounds %"struct.std::_Bit_iterator_base", ptr %6, i32 0, i32 0
  %15 = load ptr, ptr %14, align 8
  %16 = getelementptr inbounds i64, ptr %15, i64 %13
  store ptr %16, ptr %14, align 8
  %17 = load i64, ptr %5, align 8
  %18 = srem i64 %17, 64
  store i64 %18, ptr %5, align 8
  %19 = load i64, ptr %5, align 8
  %20 = icmp slt i64 %19, 0
  br i1 %20, label %21, label %27

21:                                               ; preds = %2
  %22 = load i64, ptr %5, align 8
  %23 = add nsw i64 %22, 64
  store i64 %23, ptr %5, align 8
  %24 = getelementptr inbounds %"struct.std::_Bit_iterator_base", ptr %6, i32 0, i32 0
  %25 = load ptr, ptr %24, align 8
  %26 = getelementptr inbounds i64, ptr %25, i32 -1
  store ptr %26, ptr %24, align 8
  br label %27

27:                                               ; preds = %21, %2
  %28 = load i64, ptr %5, align 8
  %29 = trunc i64 %28 to i32
  %30 = getelementptr inbounds %"struct.std::_Bit_iterator_base", ptr %6, i32 0, i32 1
  store i32 %29, ptr %30, align 8
  ret void
}

; Function Attrs: mustprogress nounwind uwtable
define linkonce_odr dso_local noundef zeroext i1 @_ZNKSt14_Bit_referencecvbEv(ptr noundef nonnull align 8 dereferenceable(16) %0) #4 comdat align 2 {
  %2 = alloca ptr, align 8
  store ptr %0, ptr %2, align 8
  %3 = load ptr, ptr %2, align 8
  %4 = getelementptr inbounds %"struct.std::_Bit_reference", ptr %3, i32 0, i32 0
  %5 = load ptr, ptr %4, align 8
  %6 = load i64, ptr %5, align 8
  %7 = getelementptr inbounds %"struct.std::_Bit_reference", ptr %3, i32 0, i32 1
  %8 = load i64, ptr %7, align 8
  %9 = and i64 %6, %8
  %10 = icmp ne i64 %9, 0
  %11 = xor i1 %10, true
  %12 = xor i1 %11, true
  ret i1 %12
}

; Function Attrs: mustprogress nounwind uwtable
define linkonce_odr dso_local void @_ZNSt14_Bit_referenceC2EPmm(ptr noundef nonnull align 8 dereferenceable(16) %0, ptr noundef %1, i64 noundef %2) unnamed_addr #4 comdat align 2 {
  %4 = alloca ptr, align 8
  %5 = alloca ptr, align 8
  %6 = alloca i64, align 8
  store ptr %0, ptr %4, align 8
  store ptr %1, ptr %5, align 8
  store i64 %2, ptr %6, align 8
  %7 = load ptr, ptr %4, align 8
  %8 = getelementptr inbounds %"struct.std::_Bit_reference", ptr %7, i32 0, i32 0
  %9 = load ptr, ptr %5, align 8
  store ptr %9, ptr %8, align 8
  %10 = getelementptr inbounds %"struct.std::_Bit_reference", ptr %7, i32 0, i32 1
  %11 = load i64, ptr %6, align 8
  store i64 %11, ptr %10, align 8
  ret void
}

; Function Attrs: mustprogress uwtable
define linkonce_odr dso_local noundef nonnull align 8 dereferenceable(12) ptr @_ZNSt19_Bit_const_iteratorpLEl(ptr noundef nonnull align 8 dereferenceable(12) %0, i64 noundef %1) #5 comdat align 2 {
  %3 = alloca ptr, align 8
  %4 = alloca i64, align 8
  store ptr %0, ptr %3, align 8
  store i64 %1, ptr %4, align 8
  %5 = load ptr, ptr %3, align 8
  %6 = load i64, ptr %4, align 8
  call void @_ZNSt18_Bit_iterator_base7_M_incrEl(ptr noundef nonnull align 8 dereferenceable(12) %5, i64 noundef %6)
  ret ptr %5
}

; Function Attrs: mustprogress nounwind uwtable
define linkonce_odr dso_local void @_ZNSt18_Bit_iterator_baseC2EPmj(ptr noundef nonnull align 8 dereferenceable(12) %0, ptr noundef %1, i32 noundef %2) unnamed_addr #4 comdat align 2 {
  %4 = alloca ptr, align 8
  %5 = alloca ptr, align 8
  %6 = alloca i32, align 4
  store ptr %0, ptr %4, align 8
  store ptr %1, ptr %5, align 8
  store i32 %2, ptr %6, align 4
  %7 = load ptr, ptr %4, align 8
  %8 = getelementptr inbounds %"struct.std::_Bit_iterator_base", ptr %7, i32 0, i32 0
  %9 = load ptr, ptr %5, align 8
  store ptr %9, ptr %8, align 8
  %10 = getelementptr inbounds %"struct.std::_Bit_iterator_base", ptr %7, i32 0, i32 1
  %11 = load i32, ptr %6, align 4
  store i32 %11, ptr %10, align 8
  ret void
}

; Function Attrs: mustprogress uwtable
define linkonce_odr dso_local noundef zeroext i1 @_ZNKSt19_Bit_const_iteratordeEv(ptr noundef nonnull align 8 dereferenceable(12) %0) #5 comdat align 2 {
  %2 = alloca ptr, align 8
  %3 = alloca %"struct.std::_Bit_reference", align 8
  store ptr %0, ptr %2, align 8
  %4 = load ptr, ptr %2, align 8
  %5 = getelementptr inbounds %"struct.std::_Bit_iterator_base", ptr %4, i32 0, i32 0
  %6 = load ptr, ptr %5, align 8
  %7 = getelementptr inbounds %"struct.std::_Bit_iterator_base", ptr %4, i32 0, i32 1
  %8 = load i32, ptr %7, align 8
  %9 = zext i32 %8 to i64
  %10 = shl i64 1, %9
  call void @_ZNSt14_Bit_referenceC2EPmm(ptr noundef nonnull align 8 dereferenceable(16) %3, ptr noundef %6, i64 noundef %10)
  %11 = call noundef zeroext i1 @_ZNKSt14_Bit_referencecvbEv(ptr noundef nonnull align 8 dereferenceable(16) %3) #3
  ret i1 %11
}

; Function Attrs: mustprogress uwtable
define linkonce_odr dso_local { ptr, i32 } @_ZStplRKSt19_Bit_const_iteratorl(ptr noundef nonnull align 8 dereferenceable(12) %0, i64 noundef %1) #5 comdat {
  %3 = alloca %"struct.std::_Bit_const_iterator", align 8
  %4 = alloca ptr, align 8
  %5 = alloca i64, align 8
  store ptr %0, ptr %4, align 8
  store i64 %1, ptr %5, align 8
  %6 = load ptr, ptr %4, align 8
  call void @llvm.memcpy.p0.p0.i64(ptr align 8 %3, ptr align 8 %6, i64 16, i1 false)
  %7 = load i64, ptr %5, align 8
  %8 = call noundef nonnull align 8 dereferenceable(12) ptr @_ZNSt19_Bit_const_iteratorpLEl(ptr noundef nonnull align 8 dereferenceable(12) %3, i64 noundef %7)
  %9 = load { ptr, i32 }, ptr %3, align 8
  ret { ptr, i32 } %9
}

; Function Attrs: mustprogress nounwind uwtable
define linkonce_odr dso_local void @_ZNSt19_Bit_const_iteratorC2EPmj(ptr noundef nonnull align 8 dereferenceable(12) %0, ptr noundef %1, i32 noundef %2) unnamed_addr #4 comdat align 2 {
  %4 = alloca ptr, align 8
  %5 = alloca ptr, align 8
  %6 = alloca i32, align 4
  store ptr %0, ptr %4, align 8
  store ptr %1, ptr %5, align 8
  store i32 %2, ptr %6, align 4
  %7 = load ptr, ptr %4, align 8
  %8 = load ptr, ptr %5, align 8
  %9 = load i32, ptr %6, align 4
  call void @_ZNSt18_Bit_iterator_baseC2EPmj(ptr noundef nonnull align 8 dereferenceable(12) %7, ptr noundef %8, i32 noundef %9)
  ret void
}

; Function Attrs: noreturn nounwind uwtable
define linkonce_odr hidden void @__clang_call_terminate(ptr noundef %0) #7 comdat {
  %2 = call ptr @__cxa_begin_catch(ptr %0) #3
  call void @_ZSt9terminatev() #14
  unreachable
}

; Function Attrs: mustprogress nounwind uwtable
define linkonce_odr dso_local void @_ZNSt19_Bit_const_iteratorC2ERKSt13_Bit_iterator(ptr noundef nonnull align 8 dereferenceable(12) %0, ptr noundef nonnull align 8 dereferenceable(12) %1) unnamed_addr #4 comdat align 2 {
  %3 = alloca ptr, align 8
  %4 = alloca ptr, align 8
  store ptr %0, ptr %3, align 8
  store ptr %1, ptr %4, align 8
  %5 = load ptr, ptr %3, align 8
  %6 = load ptr, ptr %4, align 8
  %7 = getelementptr inbounds %"struct.std::_Bit_iterator_base", ptr %6, i32 0, i32 0
  %8 = load ptr, ptr %7, align 8
  %9 = load ptr, ptr %4, align 8
  %10 = getelementptr inbounds %"struct.std::_Bit_iterator_base", ptr %9, i32 0, i32 1
  %11 = load i32, ptr %10, align 8
  call void @_ZNSt18_Bit_iterator_baseC2EPmj(ptr noundef nonnull align 8 dereferenceable(12) %5, ptr noundef %8, i32 noundef %11)
  ret void
}

; Function Attrs: mustprogress uwtable
define linkonce_odr dso_local noundef zeroext i1 @_ZNKSt19_Bit_const_iteratorixEl(ptr noundef nonnull align 8 dereferenceable(12) %0, i64 noundef %1) #5 comdat align 2 {
  %3 = alloca ptr, align 8
  %4 = alloca i64, align 8
  %5 = alloca %"struct.std::_Bit_const_iterator", align 8
  store ptr %0, ptr %3, align 8
  store i64 %1, ptr %4, align 8
  %6 = load ptr, ptr %3, align 8
  %7 = load i64, ptr %4, align 8
  %8 = call { ptr, i32 } @_ZStplRKSt19_Bit_const_iteratorl(ptr noundef nonnull align 8 dereferenceable(12) %6, i64 noundef %7)
  %9 = getelementptr inbounds { ptr, i32 }, ptr %5, i32 0, i32 0
  %10 = extractvalue { ptr, i32 } %8, 0
  store ptr %10, ptr %9, align 8
  %11 = getelementptr inbounds { ptr, i32 }, ptr %5, i32 0, i32 1
  %12 = extractvalue { ptr, i32 } %8, 1
  store i32 %12, ptr %11, align 8
  %13 = call noundef zeroext i1 @_ZNKSt19_Bit_const_iteratordeEv(ptr noundef nonnull align 8 dereferenceable(12) %5)
  ret i1 %13
}

; Function Attrs: mustprogress nounwind uwtable
define linkonce_odr dso_local noundef i64 @_ZStmiRKSt18_Bit_iterator_baseS1_(ptr noundef nonnull align 8 dereferenceable(12) %0, ptr noundef nonnull align 8 dereferenceable(12) %1) #4 comdat {
  %3 = alloca ptr, align 8
  %4 = alloca ptr, align 8
  store ptr %0, ptr %3, align 8
  store ptr %1, ptr %4, align 8
  %5 = load ptr, ptr %3, align 8
  %6 = getelementptr inbounds %"struct.std::_Bit_iterator_base", ptr %5, i32 0, i32 0
  %7 = load ptr, ptr %6, align 8
  %8 = load ptr, ptr %4, align 8
  %9 = getelementptr inbounds %"struct.std::_Bit_iterator_base", ptr %8, i32 0, i32 0
  %10 = load ptr, ptr %9, align 8
  %11 = ptrtoint ptr %7 to i64
  %12 = ptrtoint ptr %10 to i64
  %13 = sub i64 %11, %12
  %14 = sdiv exact i64 %13, 8
  %15 = mul nsw i64 64, %14
  %16 = load ptr, ptr %3, align 8
  %17 = getelementptr inbounds %"struct.std::_Bit_iterator_base", ptr %16, i32 0, i32 1
  %18 = load i32, ptr %17, align 8
  %19 = zext i32 %18 to i64
  %20 = add nsw i64 %15, %19
  %21 = load ptr, ptr %4, align 8
  %22 = getelementptr inbounds %"struct.std::_Bit_iterator_base", ptr %21, i32 0, i32 1
  %23 = load i32, ptr %22, align 8
  %24 = zext i32 %23 to i64
  %25 = sub nsw i64 %20, %24
  ret i64 %25
}

; Function Attrs: mustprogress nounwind uwtable
define linkonce_odr dso_local { ptr, i32 } @_ZNKSt6vectorIbSaIbEE5beginEv(ptr noundef nonnull align 8 dereferenceable(40) %0) #4 comdat align 2 personality ptr @__gxx_personality_v0 {
  %2 = alloca %"struct.std::_Bit_const_iterator", align 8
  %3 = alloca ptr, align 8
  store ptr %0, ptr %3, align 8
  %4 = load ptr, ptr %3, align 8
  %5 = getelementptr inbounds %"struct.std::_Bvector_base", ptr %4, i32 0, i32 0
  %6 = getelementptr inbounds %"struct.std::_Bvector_base<std::allocator<bool>>::_Bvector_impl_data", ptr %5, i32 0, i32 0
  %7 = getelementptr inbounds %"struct.std::_Bit_iterator_base", ptr %6, i32 0, i32 0
  %8 = load ptr, ptr %7, align 8
  invoke void @_ZNSt19_Bit_const_iteratorC2EPmj(ptr noundef nonnull align 8 dereferenceable(12) %2, ptr noundef %8, i32 noundef 0)
          to label %9 unwind label %11

9:                                                ; preds = %1
  %10 = load { ptr, i32 }, ptr %2, align 8
  ret { ptr, i32 } %10

11:                                               ; preds = %1
  %12 = landingpad { ptr, i32 }
          catch ptr null
  %13 = extractvalue { ptr, i32 } %12, 0
  call void @__clang_call_terminate(ptr %13) #14
  unreachable
}

; Function Attrs: mustprogress nounwind uwtable
define linkonce_odr dso_local { ptr, i32 } @_ZNKSt6vectorIbSaIbEE3endEv(ptr noundef nonnull align 8 dereferenceable(40) %0) #4 comdat align 2 personality ptr @__gxx_personality_v0 {
  %2 = alloca %"struct.std::_Bit_const_iterator", align 8
  %3 = alloca ptr, align 8
  store ptr %0, ptr %3, align 8
  %4 = load ptr, ptr %3, align 8
  %5 = getelementptr inbounds %"struct.std::_Bvector_base", ptr %4, i32 0, i32 0
  %6 = getelementptr inbounds %"struct.std::_Bvector_base<std::allocator<bool>>::_Bvector_impl_data", ptr %5, i32 0, i32 1
  invoke void @_ZNSt19_Bit_const_iteratorC2ERKSt13_Bit_iterator(ptr noundef nonnull align 8 dereferenceable(12) %2, ptr noundef nonnull align 8 dereferenceable(12) %6)
          to label %7 unwind label %9

7:                                                ; preds = %1
  %8 = load { ptr, i32 }, ptr %2, align 8
  ret { ptr, i32 } %8

9:                                                ; preds = %1
  %10 = landingpad { ptr, i32 }
          catch ptr null
  %11 = extractvalue { ptr, i32 } %10, 0
  call void @__clang_call_terminate(ptr %11) #14
  unreachable
}

; Function Attrs: mustprogress uwtable
define linkonce_odr dso_local noundef zeroext i1 @_ZNKSt6vectorIbSaIbEEixEm(ptr noundef nonnull align 8 dereferenceable(40) %0, i64 noundef %1) #5 comdat align 2 {
  %3 = alloca ptr, align 8
  %4 = alloca i64, align 8
  %5 = alloca %"struct.std::_Bit_const_iterator", align 8
  store ptr %0, ptr %3, align 8
  store i64 %1, ptr %4, align 8
  %6 = load ptr, ptr %3, align 8
  %7 = call { ptr, i32 } @_ZNKSt6vectorIbSaIbEE5beginEv(ptr noundef nonnull align 8 dereferenceable(40) %6) #3
  %8 = getelementptr inbounds { ptr, i32 }, ptr %5, i32 0, i32 0
  %9 = extractvalue { ptr, i32 } %7, 0
  store ptr %9, ptr %8, align 8
  %10 = getelementptr inbounds { ptr, i32 }, ptr %5, i32 0, i32 1
  %11 = extractvalue { ptr, i32 } %7, 1
  store i32 %11, ptr %10, align 8
  %12 = load i64, ptr %4, align 8
  %13 = call noundef zeroext i1 @_ZNKSt19_Bit_const_iteratorixEl(ptr noundef nonnull align 8 dereferenceable(12) %5, i64 noundef %12)
  ret i1 %13
}

; Function Attrs: mustprogress nounwind uwtable
define linkonce_odr dso_local noundef i64 @_ZNKSt6vectorIbSaIbEE4sizeEv(ptr noundef nonnull align 8 dereferenceable(40) %0) #4 comdat align 2 {
  %2 = alloca ptr, align 8
  %3 = alloca %"struct.std::_Bit_const_iterator", align 8
  %4 = alloca %"struct.std::_Bit_const_iterator", align 8
  store ptr %0, ptr %2, align 8
  %5 = load ptr, ptr %2, align 8
  %6 = call { ptr, i32 } @_ZNKSt6vectorIbSaIbEE3endEv(ptr noundef nonnull align 8 dereferenceable(40) %5) #3
  %7 = getelementptr inbounds { ptr, i32 }, ptr %3, i32 0, i32 0
  %8 = extractvalue { ptr, i32 } %6, 0
  store ptr %8, ptr %7, align 8
  %9 = getelementptr inbounds { ptr, i32 }, ptr %3, i32 0, i32 1
  %10 = extractvalue { ptr, i32 } %6, 1
  store i32 %10, ptr %9, align 8
  %11 = call { ptr, i32 } @_ZNKSt6vectorIbSaIbEE5beginEv(ptr noundef nonnull align 8 dereferenceable(40) %5) #3
  %12 = getelementptr inbounds { ptr, i32 }, ptr %4, i32 0, i32 0
  %13 = extractvalue { ptr, i32 } %11, 0
  store ptr %13, ptr %12, align 8
  %14 = getelementptr inbounds { ptr, i32 }, ptr %4, i32 0, i32 1
  %15 = extractvalue { ptr, i32 } %11, 1
  store i32 %15, ptr %14, align 8
  %16 = call noundef i64 @_ZStmiRKSt18_Bit_iterator_baseS1_(ptr noundef nonnull align 8 dereferenceable(12) %3, ptr noundef nonnull align 8 dereferenceable(12) %4)
  ret i64 %16
}

; Function Attrs: mustprogress uwtable
define dso_local noundef zeroext i1 @_ZNK12CVQualifiers23is_volatile_after_derefEi(ptr noundef nonnull align 8 dereferenceable(96) %0, i32 noundef %1) #5 align 2 {
  %3 = alloca i1, align 1
  %4 = alloca ptr, align 8
  %5 = alloca i32, align 4
  %6 = alloca i64, align 8
  store ptr %0, ptr %4, align 8
  store i32 %1, ptr %5, align 4
  %7 = load ptr, ptr %4, align 8
  %8 = load i32, ptr %5, align 4
  %9 = icmp slt i32 %8, 0
  br i1 %9, label %10, label %11

10:                                               ; preds = %2
  store i1 false, ptr %3, align 1
  br label %21

11:                                               ; preds = %2
  %12 = getelementptr inbounds %class.CVQualifiers, ptr %7, i32 0, i32 4
  %13 = call noundef i64 @_ZNKSt6vectorIbSaIbEE4sizeEv(ptr noundef nonnull align 8 dereferenceable(40) %12) #3
  store i64 %13, ptr %6, align 8
  %14 = getelementptr inbounds %class.CVQualifiers, ptr %7, i32 0, i32 4
  %15 = load i64, ptr %6, align 8
  %16 = load i32, ptr %5, align 4
  %17 = sext i32 %16 to i64
  %18 = sub i64 %15, %17
  %19 = sub i64 %18, 1
  %20 = call noundef zeroext i1 @_ZNKSt6vectorIbSaIbEEixEm(ptr noundef nonnull align 8 dereferenceable(40) %14, i64 noundef %19)
  store i1 %20, ptr %3, align 1
  br label %21

21:                                               ; preds = %11, %10
  %22 = load i1, ptr %3, align 1
  ret i1 %22
}